target datalayout = "e-m:e-p270:32:32-p271:32:32-p272:64:64-i64:64-i128:128-f80:128-n8:16:32:64-S128"
target triple = "x86_64-pc-linux-gnu"

%struct.quic_sstream_st = type { %struct.ring_buf, %struct.ossl_list_st_uint_set, %struct.ossl_list_st_uint_set, i8 }
%struct.ring_buf = type { ptr, i64, i64, i64 }
%struct.ossl_list_st_uint_set = type { ptr, ptr, i64 }
%struct.uint_range_st = type { i64, i64 }

; Function Attrs: inlinehint nounwind uwtable
define internal i64 @ring_buf_used(ptr noundef %0) #3 {
  %2 = alloca ptr, align 8
  store ptr %0, ptr %2, align 8, !tbaa !10
  %3 = load ptr, ptr %2, align 8, !tbaa !10
  %4 = getelementptr inbounds nuw %struct.ring_buf, ptr %3, i32 0, i32 2
  %5 = load i64, ptr %4, align 8, !tbaa !16
  %6 = load ptr, ptr %2, align 8, !tbaa !10
  %7 = getelementptr inbounds nuw %struct.ring_buf, ptr %6, i32 0, i32 3
  %8 = load i64, ptr %7, align 8, !tbaa !15
  %9 = sub i64 %5, %8
  ret i64 %9
}

; Function Attrs: inlinehint nounwind uwtable
define internal i64 @ring_buf_avail(ptr noundef %0) #3 {
  %2 = alloca ptr, align 8
  store ptr %0, ptr %2, align 8, !tbaa !10
  %3 = load ptr, ptr %2, align 8, !tbaa !10
  %4 = getelementptr inbounds nuw %struct.ring_buf, ptr %3, i32 0, i32 1
  %5 = load i64, ptr %4, align 8, !tbaa !14
  %6 = load ptr, ptr %2, align 8, !tbaa !10
  %7 = call i64 @ring_buf_used(ptr noundef %6)
  %8 = sub i64 %5, %7
  ret i64 %8
}

; Function Attrs: inlinehint nounwind uwtable
define internal i64 @ring_buf_push(ptr noundef %0, ptr noundef %1, i64 noundef %2) #3 {
  %4 = alloca ptr, align 8
  %5 = alloca ptr, align 8
  %6 = alloca i64, align 8
  %7 = alloca i64, align 8
  %8 = alloca i64, align 8
  %9 = alloca i64, align 8
  %10 = alloca i64, align 8
  %11 = alloca ptr, align 8
  store ptr %0, ptr %4, align 8, !tbaa !10
  store ptr %1, ptr %5, align 8, !tbaa !19
  store i64 %2, ptr %6, align 8, !tbaa !3
  call void @llvm.lifetime.start.p0(i64 8, ptr %7) #6
  store i64 0, ptr %7, align 8, !tbaa !3
  call void @llvm.lifetime.start.p0(i64 8, ptr %8) #6
  call void @llvm.lifetime.start.p0(i64 8, ptr %9) #6
  call void @llvm.lifetime.start.p0(i64 8, ptr %10) #6
  call void @llvm.lifetime.start.p0(i64 8, ptr %11) #6
  %12 = load ptr, ptr %4, align 8, !tbaa !10
  %13 = getelementptr inbounds nuw %struct.ring_buf, ptr %12, i32 0, i32 0
  %14 = load ptr, ptr %13, align 8, !tbaa !12
  store ptr %14, ptr %11, align 8, !tbaa !19
  br label %15

15:                                               ; preds = %57, %3
  %16 = load ptr, ptr %4, align 8, !tbaa !10
  %17 = call i64 @ring_buf_avail(ptr noundef %16)
  store i64 %17, ptr %8, align 8, !tbaa !3
  %18 = load i64, ptr %6, align 8, !tbaa !3
  %19 = load i64, ptr %8, align 8, !tbaa !3
  %20 = icmp ugt i64 %18, %19
  br i1 %20, label %21, label %23

21:                                               ; preds = %15
  %22 = load i64, ptr %8, align 8, !tbaa !3
  store i64 %22, ptr %6, align 8, !tbaa !3
  br label %23

23:                                               ; preds = %21, %15
  %24 = load i64, ptr %6, align 8, !tbaa !3
  %25 = load ptr, ptr %4, align 8, !tbaa !10
  %26 = getelementptr inbounds nuw %struct.ring_buf, ptr %25, i32 0, i32 2
  %27 = load i64, ptr %26, align 8, !tbaa !16
  %28 = sub i64 4611686018427387904, %27
  %29 = icmp ugt i64 %24, %28
  br i1 %29, label %30, label %35

30:                                               ; preds = %23
  %31 = load ptr, ptr %4, align 8, !tbaa !10
  %32 = getelementptr inbounds nuw %struct.ring_buf, ptr %31, i32 0, i32 2
  %33 = load i64, ptr %32, align 8, !tbaa !16
  %34 = sub i64 4611686018427387904, %33
  store i64 %34, ptr %6, align 8, !tbaa !3
  br label %35

35:                                               ; preds = %30, %23
  %36 = load i64, ptr %6, align 8, !tbaa !3
  %37 = icmp eq i64 %36, 0
  br i1 %37, label %38, label %39

38:                                               ; preds = %35
  br label %77

39:                                               ; preds = %35
  %40 = load ptr, ptr %4, align 8, !tbaa !10
  %41 = getelementptr inbounds nuw %struct.ring_buf, ptr %40, i32 0, i32 2
  %42 = load i64, ptr %41, align 8, !tbaa !16
  %43 = load ptr, ptr %4, align 8, !tbaa !10
  %44 = getelementptr inbounds nuw %struct.ring_buf, ptr %43, i32 0, i32 1
  %45 = load i64, ptr %44, align 8, !tbaa !14
  %46 = urem i64 %42, %45
  store i64 %46, ptr %9, align 8, !tbaa !3
  %47 = load ptr, ptr %4, align 8, !tbaa !10
  %48 = getelementptr inbounds nuw %struct.ring_buf, ptr %47, i32 0, i32 1
  %49 = load i64, ptr %48, align 8, !tbaa !14
  %50 = load i64, ptr %9, align 8, !tbaa !3
  %51 = sub i64 %49, %50
  store i64 %51, ptr %10, align 8, !tbaa !3
  %52 = load i64, ptr %6, align 8, !tbaa !3
  %53 = load i64, ptr %10, align 8, !tbaa !3
  %54 = icmp ult i64 %52, %53
  br i1 %54, label %55, label %57

55:                                               ; preds = %39
  %56 = load i64, ptr %6, align 8, !tbaa !3
  store i64 %56, ptr %10, align 8, !tbaa !3
  br label %57

57:                                               ; preds = %55, %39
  %58 = load ptr, ptr %11, align 8, !tbaa !19
  %59 = load i64, ptr %9, align 8, !tbaa !3
  %60 = getelementptr inbounds nuw i8, ptr %58, i64 %59
  %61 = load ptr, ptr %5, align 8, !tbaa !19
  %62 = load i64, ptr %10, align 8, !tbaa !3
  call void @llvm.memcpy.p0.p0.i64(ptr align 1 %60, ptr align 1 %61, i64 %62, i1 false)
  %63 = load i64, ptr %10, align 8, !tbaa !3
  %64 = load ptr, ptr %4, align 8, !tbaa !10
  %65 = getelementptr inbounds nuw %struct.ring_buf, ptr %64, i32 0, i32 2
  %66 = load i64, ptr %65, align 8, !tbaa !16
  %67 = add i64 %66, %63
  store i64 %67, ptr %65, align 8, !tbaa !16
  %68 = load i64, ptr %10, align 8, !tbaa !3
  %69 = load ptr, ptr %5, align 8, !tbaa !19
  %70 = getelementptr inbounds nuw i8, ptr %69, i64 %68
  store ptr %70, ptr %5, align 8, !tbaa !19
  %71 = load i64, ptr %10, align 8, !tbaa !3
  %72 = load i64, ptr %6, align 8, !tbaa !3
  %73 = sub i64 %72, %71
  store i64 %73, ptr %6, align 8, !tbaa !3
  %74 = load i64, ptr %10, align 8, !tbaa !3
  %75 = load i64, ptr %7, align 8, !tbaa !3
  %76 = add i64 %75, %74
  store i64 %76, ptr %7, align 8, !tbaa !3
  br label %15

77:                                               ; preds = %38
  %78 = load i64, ptr %7, align 8, !tbaa !3
  call void @llvm.lifetime.end.p0(i64 8, ptr %11) #6
  call void @llvm.lifetime.end.p0(i64 8, ptr %10) #6
  call void @llvm.lifetime.end.p0(i64 8, ptr %9) #6
  call void @llvm.lifetime.end.p0(i64 8, ptr %8) #6
  call void @llvm.lifetime.end.p0(i64 8, ptr %7) #6
  ret i64 %78
}

; Function Attrs: nounwind uwtable
define i32 @ossl_quic_sstream_append(ptr noundef %0, ptr noundef %1, i64 noundef %2, ptr noundef %3) #0 {
  %5 = alloca i32, align 4
  %6 = alloca ptr, align 8
  %7 = alloca ptr, align 8
  %8 = alloca i64, align 8
  %9 = alloca ptr, align 8
  %10 = alloca i64, align 8
  %11 = alloca i64, align 8
  %12 = alloca %struct.uint_range_st, align 8
  %13 = alloca %struct.ring_buf, align 8
  %14 = alloca i32, align 4
  store ptr %0, ptr %6, align 8, !tbaa !7
  store ptr %1, ptr %7, align 8, !tbaa !19
  store i64 %2, ptr %8, align 8, !tbaa !3
  store ptr %3, ptr %9, align 8, !tbaa !25
  call void @llvm.lifetime.start.p0(i64 8, ptr %10) #6
  call void @llvm.lifetime.start.p0(i64 8, ptr %11) #6
  store i64 0, ptr %11, align 8, !tbaa !3
  call void @llvm.lifetime.start.p0(i64 16, ptr %12) #6
  call void @llvm.lifetime.start.p0(i64 32, ptr %13) #6
  %15 = load ptr, ptr %6, align 8, !tbaa !7
  %16 = getelementptr inbounds nuw %struct.quic_sstream_st, ptr %15, i32 0, i32 0
  call void @llvm.memcpy.p0.p0.i64(ptr align 8 %13, ptr align 8 %16, i64 32, i1 false), !tbaa.struct !53
  %17 = load ptr, ptr %6, align 8, !tbaa !7
  %18 = getelementptr inbounds nuw %struct.quic_sstream_st, ptr %17, i32 0, i32 3
  %19 = load i8, ptr %18, align 8
  %20 = and i8 %19, 1
  %21 = zext i8 %20 to i32
  %22 = icmp ne i32 %21, 0
  br i1 %22, label %23, label %25

23:                                               ; preds = %4
  %24 = load ptr, ptr %9, align 8, !tbaa !25
  store i64 0, ptr %24, align 8, !tbaa !3
  store i32 0, ptr %5, align 4
  store i32 1, ptr %14, align 4
  br label %73

25:                                               ; preds = %4
  br label %26

26:                                               ; preds = %38, %25
  %27 = load i64, ptr %8, align 8, !tbaa !3
  %28 = icmp ugt i64 %27, 0
  br i1 %28, label %29, label %48

29:                                               ; preds = %26
  %30 = load ptr, ptr %6, align 8, !tbaa !7
  %31 = getelementptr inbounds nuw %struct.quic_sstream_st, ptr %30, i32 0, i32 0
  %32 = load ptr, ptr %7, align 8, !tbaa !19
  %33 = load i64, ptr %8, align 8, !tbaa !3
  %34 = call i64 @ring_buf_push(ptr noundef %31, ptr noundef %32, i64 noundef %33)
  store i64 %34, ptr %10, align 8, !tbaa !3
  %35 = load i64, ptr %10, align 8, !tbaa !3
  %36 = icmp eq i64 %35, 0
  br i1 %36, label %37, label %38

37:                                               ; preds = %29
  br label %48

38:                                               ; preds = %29
  %39 = load i64, ptr %10, align 8, !tbaa !3
  %40 = load ptr, ptr %7, align 8, !tbaa !19
  %41 = getelementptr inbounds nuw i8, ptr %40, i64 %39
  store ptr %41, ptr %7, align 8, !tbaa !19
  %42 = load i64, ptr %10, align 8, !tbaa !3
  %43 = load i64, ptr %8, align 8, !tbaa !3
  %44 = sub i64 %43, %42
  store i64 %44, ptr %8, align 8, !tbaa !3
  %45 = load i64, ptr %10, align 8, !tbaa !3
  %46 = load i64, ptr %11, align 8, !tbaa !3
  %47 = add i64 %46, %45
  store i64 %47, ptr %11, align 8, !tbaa !3
  br label %26, !llvm.loop !55

48:                                               ; preds = %37, %26
  %49 = load i64, ptr %11, align 8, !tbaa !3
  %50 = icmp ugt i64 %49, 0
  br i1 %50, label %51, label %70

51:                                               ; preds = %48
  %52 = getelementptr inbounds nuw %struct.ring_buf, ptr %13, i32 0, i32 2
  %53 = load i64, ptr %52, align 8, !tbaa !16
  %54 = getelementptr inbounds nuw %struct.uint_range_st, ptr %12, i32 0, i32 0
  store i64 %53, ptr %54, align 8, !tbaa !51
  %55 = getelementptr inbounds nuw %struct.uint_range_st, ptr %12, i32 0, i32 0
  %56 = load i64, ptr %55, align 8, !tbaa !51
  %57 = load i64, ptr %11, align 8, !tbaa !3
  %58 = add i64 %56, %57
  %59 = sub i64 %58, 1
  %60 = getelementptr inbounds nuw %struct.uint_range_st, ptr %12, i32 0, i32 1
  store i64 %59, ptr %60, align 8, !tbaa !52
  %61 = load ptr, ptr %6, align 8, !tbaa !7
  %62 = getelementptr inbounds nuw %struct.quic_sstream_st, ptr %61, i32 0, i32 1
  %63 = call i32 @ossl_uint_set_insert(ptr noundef %62, ptr noundef %12)
  %64 = icmp ne i32 %63, 0
  br i1 %64, label %69, label %65

65:                                               ; preds = %51
  %66 = load ptr, ptr %6, align 8, !tbaa !7
  %67 = getelementptr inbounds nuw %struct.quic_sstream_st, ptr %66, i32 0, i32 0
  call void @llvm.memcpy.p0.p0.i64(ptr align 8 %67, ptr align 8 %13, i64 32, i1 false), !tbaa.struct !53
  %68 = load ptr, ptr %9, align 8, !tbaa !25
  store i64 0, ptr %68, align 8, !tbaa !3
  store i32 0, ptr %5, align 4
  store i32 1, ptr %14, align 4
  br label %73

69:                                               ; preds = %51
  br label %70

70:                                               ; preds = %69, %48
  %71 = load i64, ptr %11, align 8, !tbaa !3
  %72 = load ptr, ptr %9, align 8, !tbaa !25
  store i64 %71, ptr %72, align 8, !tbaa !3
  store i32 1, ptr %5, align 4
  store i32 1, ptr %14, align 4
  br label %73

73:                                               ; preds = %70, %65, %23
  call void @llvm.lifetime.end.p0(i64 32, ptr %13) #6
  call void @llvm.lifetime.end.p0(i64 16, ptr %12) #6
  call void @llvm.lifetime.end.p0(i64 8, ptr %11) #6
  call void @llvm.lifetime.end.p0(i64 8, ptr %10) #6
  %74 = load i32, ptr %5, align 4
  ret i32 %74
}