; Function Attrs: nounwind uwtable
define range(i32 0, 2) i32 @ossl_quic_sstream_append(ptr noundef %0, ptr noundef readonly captures(none) %1, i64 noundef %2, ptr noundef writeonly captures(none) %3) local_unnamed_addr #0 {
  %5 = alloca %struct.uint_range_st, align 8
  %.sroa.0 = alloca { ptr, i64 }, align 8
  call void @llvm.lifetime.start.p0(i64 16, ptr nonnull %5) #12
  call void @llvm.lifetime.start.p0(i64 16, ptr nonnull %.sroa.0)
  call void @llvm.memcpy.p0.p0.i64(ptr noundef nonnull align 8 dereferenceable(16) %.sroa.0, ptr noundef nonnull align 8 dereferenceable(16) %0, i64 16, i1 false), !tbaa.struct !36
  %.sroa.4.0..sroa_idx = getelementptr inbounds nuw i8, ptr %0, i64 16
  %.sroa.4.0.copyload = load i64, ptr %.sroa.4.0..sroa_idx, align 8, !tbaa !12
  %.sroa.5.0..sroa_idx = getelementptr inbounds nuw i8, ptr %0, i64 24
  %.sroa.5.0.copyload = load i64, ptr %.sroa.5.0..sroa_idx, align 8, !tbaa !12
  %6 = getelementptr inbounds nuw i8, ptr %0, i64 80
  %7 = load i8, ptr %6, align 8
  %8 = and i8 %7, 1
  %.not = icmp eq i8 %8, 0
  br i1 %.not, label %.preheader, label %ring_buf_push.exit.thread.thread

.preheader:                                       ; preds = %4
  %.not2933 = icmp eq i64 %2, 0
  br i1 %.not2933, label %ring_buf_push.exit.thread.thread, label %.lr.ph

.lr.ph:                                           ; preds = %.preheader
  %9 = getelementptr inbounds nuw i8, ptr %0, i64 8
  %.pre = load i64, ptr %9, align 8, !tbaa !9
  br label %10

10:                                               ; preds = %.lr.ph, %30
  %.val2.i36.i = phi i64 [ %.sroa.5.0.copyload, %.lr.ph ], [ %.val2.i.i, %30 ]
  %.val.i35.i = phi i64 [ %.sroa.4.0.copyload, %.lr.ph ], [ %21, %30 ]
  %11 = phi i64 [ %.pre, %.lr.ph ], [ %25, %30 ]
  %.02536 = phi ptr [ %1, %.lr.ph ], [ %31, %30 ]
  %.02635 = phi i64 [ 0, %.lr.ph ], [ %33, %30 ]
  %.02734 = phi i64 [ %2, %.lr.ph ], [ %32, %30 ]
  %12 = load ptr, ptr %0, align 8, !tbaa !3
  %.neg.i38.i = sub i64 %11, %.val.i35.i
  %13 = add i64 %.neg.i38.i, %.val2.i36.i
  %spec.select39.i = tail call i64 @llvm.umin.i64(i64 range(i64 1, 0) %.02734, i64 %13)
  %14 = sub i64 4611686018427387904, %.val.i35.i
  %.240.i = tail call i64 @llvm.umin.i64(i64 %spec.select39.i, i64 %14)
  %15 = icmp eq i64 %.240.i, 0
  br i1 %15, label %ring_buf_push.exit.thread, label %.lr.ph.i

.lr.ph.i:                                         ; preds = %10, %.lr.ph.i
  %.244.i = phi i64 [ %.2.i, %.lr.ph.i ], [ %.240.i, %10 ]
  %.val.i43.i = phi i64 [ %21, %.lr.ph.i ], [ %.val.i35.i, %10 ]
  %16 = phi i64 [ %25, %.lr.ph.i ], [ %11, %10 ]
  %.042.i = phi ptr [ %22, %.lr.ph.i ], [ %.02536, %10 ]
  %.03041.i = phi i64 [ %24, %.lr.ph.i ], [ 0, %10 ]
  %17 = urem i64 %.val.i43.i, %16
  %18 = sub i64 %16, %17
  %spec.select34.i = tail call i64 @llvm.umin.i64(i64 %.244.i, i64 %18)
  %19 = getelementptr inbounds nuw i8, ptr %12, i64 %17
  tail call void @llvm.memcpy.p0.p0.i64(ptr align 1 %19, ptr align 1 %.042.i, i64 %spec.select34.i, i1 false)
  %20 = load i64, ptr %.sroa.4.0..sroa_idx, align 8, !tbaa !10
  %21 = add i64 %20, %spec.select34.i
  store i64 %21, ptr %.sroa.4.0..sroa_idx, align 8, !tbaa !10
  %22 = getelementptr inbounds nuw i8, ptr %.042.i, i64 %spec.select34.i
  %23 = sub i64 %.244.i, %spec.select34.i
  %24 = add i64 %spec.select34.i, %.03041.i
  %25 = load i64, ptr %9, align 8, !tbaa !9
  %.val2.i.i = load i64, ptr %.sroa.5.0..sroa_idx, align 8, !tbaa !11
  %.neg.i.i = sub i64 %25, %21
  %26 = add i64 %.neg.i.i, %.val2.i.i
  %spec.select.i = tail call i64 @llvm.umin.i64(i64 %23, i64 %26)
  %27 = sub i64 4611686018427387904, %21
  %.2.i = tail call i64 @llvm.umin.i64(i64 %spec.select.i, i64 %27)
  %28 = icmp eq i64 %.2.i, 0
  br i1 %28, label %ring_buf_push.exit, label %.lr.ph.i

ring_buf_push.exit:                               ; preds = %.lr.ph.i
  %29 = icmp eq i64 %24, 0
  br i1 %29, label %ring_buf_push.exit.thread, label %30

30:                                               ; preds = %ring_buf_push.exit
  %31 = getelementptr inbounds nuw i8, ptr %.02536, i64 %24
  %32 = sub i64 %.02734, %24
  %33 = add i64 %24, %.02635
  %.not29 = icmp eq i64 %32, 0
  br i1 %.not29, label %ring_buf_push.exit.thread, label %10, !llvm.loop !38

ring_buf_push.exit.thread:                        ; preds = %30, %ring_buf_push.exit, %10
  %.026.lcssa = phi i64 [ %33, %30 ], [ %.02635, %ring_buf_push.exit ], [ %.02635, %10 ]
  %.not30 = icmp eq i64 %.026.lcssa, 0
  br i1 %.not30, label %ring_buf_push.exit.thread.thread, label %34

34:                                               ; preds = %ring_buf_push.exit.thread
  store i64 %.sroa.4.0.copyload, ptr %5, align 8, !tbaa !33
  %35 = add i64 %.sroa.4.0.copyload, -1
  %36 = add i64 %35, %.026.lcssa
  %37 = getelementptr inbounds nuw i8, ptr %5, i64 8
  store i64 %36, ptr %37, align 8, !tbaa !34
  %38 = getelementptr inbounds nuw i8, ptr %0, i64 32
  %39 = call i32 @ossl_uint_set_insert(ptr noundef nonnull %38, ptr noundef nonnull %5) #12
  %.not31 = icmp eq i32 %39, 0
  br i1 %.not31, label %40, label %ring_buf_push.exit.thread.thread

40:                                               ; preds = %34
  call void @llvm.memcpy.p0.p0.i64(ptr noundef nonnull align 8 dereferenceable(16) %0, ptr noundef nonnull align 8 dereferenceable(16) %.sroa.0, i64 16, i1 false), !tbaa.struct !36
  store i64 %.sroa.4.0.copyload, ptr %.sroa.4.0..sroa_idx, align 8, !tbaa !12
  store i64 %.sroa.5.0.copyload, ptr %.sroa.5.0..sroa_idx, align 8, !tbaa !12
  br label %ring_buf_push.exit.thread.thread

ring_buf_push.exit.thread.thread:                 ; preds = %ring_buf_push.exit.thread, %34, %.preheader, %4, %40
  %.026.lcssa44.sink = phi i64 [ 0, %40 ], [ 0, %4 ], [ %.026.lcssa, %34 ], [ 0, %ring_buf_push.exit.thread ], [ 0, %.preheader ]
  %.0 = phi i32 [ 0, %40 ], [ 0, %4 ], [ 1, %34 ], [ 1, %ring_buf_push.exit.thread ], [ 1, %.preheader ]
  store i64 %.026.lcssa44.sink, ptr %3, align 8, !tbaa !12
  call void @llvm.lifetime.end.p0(i64 16, ptr nonnull %.sroa.0)
  call void @llvm.lifetime.end.p0(i64 16, ptr nonnull %5) #12
  ret i32 %.0
}